-----BEGIN CERTIFICATE-----
MIIF8TCCA9mgAwIBAgIJALYDWbUmpN7pMA0GCSqGSIb3DQEBBQUAMIGOMQswCQYD
VQQGEwJHSTESMBAGA1UECAwJR2licmFsdGFyMRIwEAYDVQQHDAlHaWJyYWx0YXIx
DzANBgNVBAoMBlBob25lWDELMAkGA1UECwwCQ0ExFzAVBgNVBAMMDmNhLnBob25l
LXgubmV0MSAwHgYJKoZIhvcNAQkBFhFhZG1pbkBwaG9uZS14Lm5ldDAeFw0xMzA5
MDUxMzI3NDhaFw0yMzA5MDMxMzI3NDhaMIGOMQswCQYDVQQGEwJHSTESMBAGA1UE
CAwJR2licmFsdGFyMRIwEAYDVQQHDAlHaWJyYWx0YXIxDzANBgNVBAoMBlBob25l
WDELMAkGA1UECwwCQ0ExFzAVBgNVBAMMDmNhLnBob25lLXgubmV0MSAwHgYJKoZI
hvcNAQkBFhFhZG1pbkBwaG9uZS14Lm5ldDCCAiIwDQYJKoZIhvcNAQEBBQADggIP
ADCCAgoCggIBANItOZXLL+lC/qIXyp+VfDxDejcoWDLaepPAeRRJf66E+SGIYyst
YHlWcVKu4kRw833KtVMtMJGWwnCfmQuUT0qzXwaXlt2WHC8CNwIaNZUprrbmVZOF
Kr5t5JfW96oimTIsy5yUNJaCeW1Hx8o+Nhdr/PuNe1rjKGxtt6lbJgFBr12im6zB
/ZGkV2w1c9xIgh2ZzGTpMmPfHZ9I1Ok75tDAJN9fGZqrOrk9lvIeFm1kGicBKtH7
g8Y74gC5CIhSzEvPy74tfjz8R09RFh0E99Xwe0wkSwvpTaazMYYrXimJbvoVJzqH
bG0qeVYlJJCfmgQBwcJdk9X20Mav6C/FwIktIu+uZKIV/fvmCBtFWVAMi0qyqUtH
KsVYO/hM+gRUFaf8jl+Epzjja/G6bYXnI57V1SZHCC6030ucKAKSAtuQ0KlV/Gjg
UbcE+6HJnW+BUJR+MHdpqv+3bmsEqF/qbRcJVRJqhQQGs2GlGF4GWK8QOfFu4iqM
8qimDjVAo8jvPummFY6WdAwxvpntZ3Qa7Q3coJcPjdI1cc7oIfZe2O2IUtMO4gHt
FLyOLzXpck7EAQxOaQsyTMR1b6aMGiYrAd+SIzrJZMAs7MPga3pbijUmaeBqM+09
Ed7sR/yCT459IDrCEjM8MnnVCOD/EP3M1PgTJuyNXAbjgcTmL6/Q6Eq3AgMBAAGj
UDBOMB0GA1UdDgQWBBRN1OBuz+/s3qJP6PWlR72PT4hrtDAfBgNVHSMEGDAWgBRN
1OBuz+/s3qJP6PWlR72PT4hrtDAMBgNVHRMEBTADAQH/MA0GCSqGSIb3DQEBBQUA
A4ICAQAuVHSj1DuVrPlyl95cOngZeO95g+/1PbFV+46xqAmY2MtiZNRT0vsaj2vN
fAQtGSs6Qx3dCv/qHCaH2nGscQ812/Zx2fWqrVNmaDcw48213rvn811yf08bSuQ4
jcDXV1ZCWDRXg4nX567e6GXajhHSBq5ryojLnmdDE0Z28HYIsFeyqr+3lJdMhOLU
ggI/on1BP0A4HZLoYQp5T1hKlUHcggbRtlJ36ggP3JgaywHj9CPASrVuv/5TnGX4
tCfG9/DFtaobdalIOn+kd8PCbQ5v+oIZoiPhbGHat3fhRfUHHuMUB7dR5jEr3Cgb
uz+eZWDrAH7cCgOyYBfE+CcIIcfQAFQiVGLtjOlJRdHOw+Myae8Mlt1V0oaBxhvI
20y68656lZHKRMHorJl17PujmKD0rZwlqBi9SB3oVUeS8i21nx+isqblN0Xjhc7R
kbzhBC2jLJ0UC63+5N8sokIydEXNIZwisXCclgAVKBBAqPR4aOM5SOMspgmMt6Rd
JRUYk18fUOObhpEjUJeqe4iBmjNsEZQrSbgWarXk1MewO/p3qdM1H4mmPe0siX7H
TygW69bEReIgZjhULl1U+FmiDEyiOXHRDV+7n2oeoC1zLKwVJ4OQglF+H+Ie3HM2
cTfbVQgQQhcvRqDmGS6O78AduC0ejfpdVFSMiv9MmnJWT8bgBg==
-----END CERTIFICATE-----
Certificate:
    Data:
        Version: 3 (0x2)
        Serial Number: 1 (0x1)
        Signature Algorithm: sha1WithRSAEncryption
        Issuer: C=GI, ST=Gibraltar, L=Gibraltar, O=PhoneX, OU=CA, CN=ca.phone-x.net/emailAddress=admin@phone-x.net
        Validity
            Not Before: Sep  5 13:36:41 2013 GMT
            Not After : Sep  4 13:36:41 2016 GMT
        Subject: C=GI, ST=Gibraltar, O=PhoneX, OU=Server, CN=phone-x.net/emailAddress=admin@phone-x.net
        Subject Public Key Info:
            Public Key Algorithm: rsaEncryption
                Public-Key: (4096 bit)
                Modulus:
                    00:fc:92:cc:c1:5d:45:90:36:44:22:c9:41:6c:d0:
                    2f:f8:50:f7:45:5c:1d:23:51:4d:ba:67:7c:2b:01:
                    39:3b:c3:08:46:c8:f8:54:bc:80:8d:66:e9:74:2a:
                    3a:42:52:10:82:98:8f:40:df:cb:68:eb:c7:83:92:
                    b1:c5:44:6b:65:04:e3:e1:97:9d:e6:d0:e6:b7:72:
                    19:29:e9:24:f3:d0:c7:b6:c6:ed:a4:a5:f5:12:0c:
                    47:51:01:ac:4b:f7:54:c1:02:7e:10:18:20:e6:e8:
                    84:1e:a9:08:68:b9:56:06:6f:8a:eb:85:b7:ed:06:
                    3d:82:e3:45:d4:7e:8b:01:0c:5b:11:9f:dd:bb:44:
                    35:63:19:cd:f1:1b:63:24:13:5e:0b:cd:97:95:6e:
                    2a:f7:35:a7:8f:3b:d9:16:d8:fa:95:ce:ba:c7:aa:
                    17:ca:ed:17:f3:f0:f4:a0:c8:02:2a:cd:d1:47:0d:
                    56:64:5e:3c:96:e7:36:ec:93:bc:fc:a9:15:f5:0f:
                    a2:e5:fd:51:bd:e3:54:7d:38:b5:81:b2:ff:ff:91:
                    98:9a:92:06:7b:be:bf:21:02:24:d6:d3:23:c2:da:
                    27:1c:f7:05:84:e5:65:7b:51:ca:eb:a2:4c:d3:0e:
                    b4:4e:d9:d8:d9:6a:94:63:15:42:7e:eb:03:67:c3:
                    55:8e:1a:2a:00:aa:81:f8:5c:26:0d:f2:41:58:17:
                    19:b5:a6:54:33:6e:d4:41:b1:12:12:d1:2a:5e:3b:
                    2e:4a:c0:61:6b:a2:c7:00:c6:e4:6a:aa:7b:b3:52:
                    7e:3e:c5:86:eb:13:02:73:b5:af:ca:74:a4:f0:a2:
                    ce:d4:3c:c4:8a:bd:ee:98:a2:15:a3:dd:0c:a3:72:
                    2c:b6:f6:c1:0f:44:71:23:10:f5:e0:68:1d:24:ca:
                    46:24:8e:a8:2e:d7:2e:1b:bf:54:12:e0:4c:2b:14:
                    90:a4:82:8b:59:07:cd:43:dd:6f:fe:c4:0d:b6:ea:
                    ec:b6:c1:b9:60:35:43:8b:67:1f:d6:cf:d7:c7:03:
                    0f:56:85:ad:9e:c8:ab:ea:5c:d1:8f:e7:9c:cc:f9:
                    77:0b:93:6a:8d:8d:c7:3b:38:54:19:35:47:0e:6b:
                    fd:63:43:4b:86:80:e8:11:42:97:9c:1b:55:88:49:
                    21:81:24:6f:8c:3b:33:68:d1:cd:e7:e4:38:ec:5c:
                    1a:1a:d8:e6:3a:9c:63:70:54:c1:02:fe:83:c7:67:
                    bf:39:fe:1e:fb:fc:0a:90:76:29:e2:a0:f8:df:0f:
                    98:c1:d3:bc:74:5c:e5:dc:f7:29:e9:46:b0:73:90:
                    49:d6:27:93:9c:7a:d8:46:7d:09:e5:51:14:d2:40:
                    ed:51:b5
                Exponent: 65537 (0x10001)
        X509v3 extensions:
            X509v3 Subject Key Identifier: 
                94:EC:DB:E7:6C:81:24:62:B1:FA:3B:96:4C:86:3F:B7:95:F9:46:81
            X509v3 Authority Key Identifier: 
                keyid:4D:D4:E0:6E:CF:EF:EC:DE:A2:4F:E8:F5:A5:47:BD:8F:4F:88:6B:B4

            X509v3 Basic Constraints: 
                CA:TRUE
    Signature Algorithm: sha1WithRSAEncryption
        3e:83:4b:ff:11:8f:8a:43:b9:12:e0:59:1d:ef:bc:aa:a9:89:
        c2:a6:1f:f6:55:df:b2:66:6b:7e:20:c1:09:e7:4c:fe:23:6b:
        09:0b:36:0b:45:21:60:b2:91:4d:38:50:05:f3:28:11:00:67:
        1d:ed:03:7e:1b:fa:72:3c:3e:14:9d:81:ba:f5:a3:c1:a2:c3:
        c5:f3:f1:e3:a6:34:43:80:9a:b0:94:75:61:5b:36:61:c7:7b:
        06:ef:48:cd:84:db:ac:76:51:e4:c4:8c:75:3a:7a:32:46:a8:
        22:88:81:47:87:ee:d3:e2:2b:a9:b1:6b:46:00:c8:a8:44:70:
        37:d3:f4:41:91:27:46:3e:bc:c9:5e:84:77:5f:7d:a0:2f:d2:
        33:29:c4:11:dc:7f:16:cb:13:ba:49:de:fd:0f:3c:96:26:46:
        48:6e:a0:a7:88:bf:c0:2e:ca:8e:a6:57:c2:a3:db:a5:98:e1:
        42:20:c0:f1:ab:58:a9:0b:aa:b5:fe:4f:1d:05:e3:f9:8a:91:
        39:08:bf:0a:c7:2c:f7:58:7a:f4:4d:d2:f6:a0:8b:22:19:f7:
        94:14:7a:8c:4d:ee:98:21:49:c9:83:24:c4:7f:2c:f1:e2:57:
        f2:09:c9:97:bb:f8:bf:67:70:80:65:1a:5b:9d:21:61:13:35:
        b9:74:a2:5e:50:2d:3e:74:3b:0a:d3:bb:26:86:c3:55:8e:d2:
        39:f2:35:32:a4:7e:6b:a9:1a:20:a9:2e:9f:0c:a9:75:65:94:
        a1:bd:84:69:00:4d:ab:40:66:42:b1:7c:2b:15:91:e9:6c:b7:
        11:24:9f:7c:16:a0:19:bf:6b:8e:ab:64:05:e9:0c:a0:e9:12:
        1d:fd:29:b8:68:2b:83:d1:16:d4:64:27:36:aa:36:29:be:44:
        dd:b7:e8:51:74:14:53:ef:62:7f:ec:3b:89:ba:7a:59:cc:bf:
        d7:17:e7:a1:ab:44:a9:f0:25:1a:ba:46:ae:1c:b2:7f:e9:fd:
        0d:d5:84:5f:20:1f:32:50:3a:f7:a9:bf:c0:2d:d3:fc:b8:e4:
        78:0c:2a:1d:36:14:33:51:f3:b9:19:df:9d:bb:b4:e9:07:66:
        98:46:61:01:f6:53:6f:4e:3a:a3:c3:b0:6c:4f:14:be:0d:4c:
        6d:33:e6:55:54:c6:9a:74:1c:bf:bf:91:37:95:62:0a:92:b9:
        a6:04:c0:b1:42:be:cc:e7:bf:70:40:3e:7f:fb:b4:27:ac:9d:
        22:df:e2:48:c4:43:24:d6:be:30:4c:98:4f:a4:79:91:d1:53:
        51:1c:00:7f:5b:40:d9:91:8c:52:d1:ff:5d:1f:9a:50:83:a7:
        c5:05:9b:88:82:08:b6:6a
-----BEGIN CERTIFICATE-----
MIIF1TCCA72gAwIBAgIBATANBgkqhkiG9w0BAQUFADCBjjELMAkGA1UEBhMCR0kx
EjAQBgNVBAgMCUdpYnJhbHRhcjESMBAGA1UEBwwJR2licmFsdGFyMQ8wDQYDVQQK
DAZQaG9uZVgxCzAJBgNVBAsMAkNBMRcwFQYDVQQDDA5jYS5waG9uZS14Lm5ldDEg
MB4GCSqGSIb3DQEJARYRYWRtaW5AcGhvbmUteC5uZXQwHhcNMTMwOTA1MTMzNjQx
WhcNMTYwOTA0MTMzNjQxWjB7MQswCQYDVQQGEwJHSTESMBAGA1UECAwJR2licmFs
dGFyMQ8wDQYDVQQKDAZQaG9uZVgxDzANBgNVBAsMBlNlcnZlcjEUMBIGA1UEAwwL
cGhvbmUteC5uZXQxIDAeBgkqhkiG9w0BCQEWEWFkbWluQHBob25lLXgubmV0MIIC
IjANBgkqhkiG9w0BAQEFAAOCAg8AMIICCgKCAgEA/JLMwV1FkDZEIslBbNAv+FD3
RVwdI1FNumd8KwE5O8MIRsj4VLyAjWbpdCo6QlIQgpiPQN/LaOvHg5KxxURrZQTj
4Zed5tDmt3IZKekk89DHtsbtpKX1EgxHUQGsS/dUwQJ+EBgg5uiEHqkIaLlWBm+K
64W37QY9guNF1H6LAQxbEZ/du0Q1YxnN8RtjJBNeC82XlW4q9zWnjzvZFtj6lc66
x6oXyu0X8/D0oMgCKs3RRw1WZF48luc27JO8/KkV9Q+i5f1RveNUfTi1gbL//5GY
mpIGe76/IQIk1tMjwtonHPcFhOVle1HK66JM0w60TtnY2WqUYxVCfusDZ8NVjhoq
AKqB+FwmDfJBWBcZtaZUM27UQbESEtEqXjsuSsBha6LHAMbkaqp7s1J+PsWG6xMC
c7WvynSk8KLO1DzEir3umKIVo90Mo3IstvbBD0RxIxD14GgdJMpGJI6oLtcuG79U
EuBMKxSQpIKLWQfNQ91v/sQNturstsG5YDVDi2cf1s/XxwMPVoWtnsir6lzRj+ec
zPl3C5NqjY3HOzhUGTVHDmv9Y0NLhoDoEUKXnBtViEkhgSRvjDszaNHN5+Q47Fwa
GtjmOpxjcFTBAv6Dx2e/Of4e+/wKkHYp4qD43w+YwdO8dFzl3Pcp6Uawc5BJ1ieT
nHrYRn0J5VEU0kDtUbUCAwEAAaNQME4wHQYDVR0OBBYEFJTs2+dsgSRisfo7lkyG
P7eV+UaBMB8GA1UdIwQYMBaAFE3U4G7P7+zeok/o9aVHvY9PiGu0MAwGA1UdEwQF
MAMBAf8wDQYJKoZIhvcNAQEFBQADggIBAD6DS/8Rj4pDuRLgWR3vvKqpicKmH/ZV
37Jma34gwQnnTP4jawkLNgtFIWCykU04UAXzKBEAZx3tA34b+nI8PhSdgbr1o8Gi
w8Xz8eOmNEOAmrCUdWFbNmHHewbvSM2E26x2UeTEjHU6ejJGqCKIgUeH7tPiK6mx
a0YAyKhEcDfT9EGRJ0Y+vMlehHdffaAv0jMpxBHcfxbLE7pJ3v0PPJYmRkhuoKeI
v8Auyo6mV8Kj26WY4UIgwPGrWKkLqrX+Tx0F4/mKkTkIvwrHLPdYevRN0vagiyIZ
95QUeoxN7pghScmDJMR/LPHiV/IJyZe7+L9ncIBlGludIWETNbl0ol5QLT50OwrT
uyaGw1WO0jnyNTKkfmupGiCpLp8MqXVllKG9hGkATatAZkKxfCsVkelstxEkn3wW
oBm/a46rZAXpDKDpEh39KbhoK4PRFtRkJzaqNim+RN236FF0FFPvYn/sO4m6elnM
v9cX56GrRKnwJRq6Rq4csn/p/Q3VhF8gHzJQOvepv8At0/y45HgMKh02FDNR87kZ
3527tOkHZphGYQH2U29OOqPDsGxPFL4NTG0z5lVUxpp0HL+/kTeVYgqSuaYEwLFC
vsznv3BAPn/7tCesnSLf4kjEQyTWvjBMmE+keZHRU1EcAH9bQNmRjFLR/10fmlCD
p8UFm4iCCLZq
-----END CERTIFICATE-----
-----BEGIN CERTIFICATE-----
MIIGBTCCA+2gAwIBAgIJAJ9XS5ouVYyoMA0GCSqGSIb3DQEBBQUAMIGYMQswCQYD
VQQGEwJDWTEQMA4GA1UECAwHTGFybmFjYTEQMA4GA1UEBwwHTGFybmFjYTEUMBIG
A1UECgwLUGhvZW5peCBsdGQxEjAQBgNVBAsMCVBob2VuaXhDQTEYMBYGA1UEAwwP
Y2EucGhvZW5peC5pbmZvMSEwHwYJKoZIhvcNAQkBFhJhZG1pbkBwaG9lbml4Lmlu
Zm8wHhcNMTIxMTIwMTMzODU2WhcNMjIxMTE4MTMzODU2WjCBmDELMAkGA1UEBhMC
Q1kxEDAOBgNVBAgMB0xhcm5hY2ExEDAOBgNVBAcMB0xhcm5hY2ExFDASBgNVBAoM
C1Bob2VuaXggbHRkMRIwEAYDVQQLDAlQaG9lbml4Q0ExGDAWBgNVBAMMD2NhLnBo
b2VuaXguaW5mbzEhMB8GCSqGSIb3DQEJARYSYWRtaW5AcGhvZW5peC5pbmZvMIIC
IjANBgkqhkiG9w0BAQEFAAOCAg8AMIICCgKCAgEAywp0j+oqwf+rDoWMO6y7RLC6
mpHUc1hDKC7rs6Xl9sFjF5oElfaz+5JOiErisgMzOsLPz9t3i2ufGZcedOJ+jh6H
utBvh0lRt1JRnPaVtet4wm5e5ChD5UXbNTKEDx4UPV9v06N/4yLE7Agcmqqi4NKH
/zRol3ZhncFqmAnuwyXhzzZfZUZyYAd2tIU+U0Lz3w3GWxgN5aN5gZdZYoJXhkHb
+KfuoWScCSsqsWTphXo/CN8VM39EQd24OnzrpJlL8fAgEkK9LdnxcegUVS7IvgaJ
Y8H8l0dayboLYV53MStGOx/WCz7D23dV9cH0+YvDBJYaLND2ojYVoaXOuHLRJqr2
nH7kSwp3vrK/JQ7F+ZI+RSyNJkZChZKCd3uERXnFfWoSISL0BMBH4G+PFTCT3m2F
fVwaPkayx4TRBcD7Rp7iWyvndt2CSZ92KIENJsRx8JOR51aqUBh69zRILem66TWk
zETxkr9Muy7qB4hEwHCoE4EMEzyeUwGEvkRbANMMahWTNvC+iJzhMoP/pQb2tRT9
Olcu0W+Ythl0Tmu0617+fxXiMxyOMbbSnqZORGzhU1h3immESjo5saB+VvXsBfbE
LDgZxVdjrAgroKBmVXhIdxB9tu1fiZ5+8k1UIMYFY6hiwowmepkXGUax2mjGV6C9
LqczdTyxAxUjVzuTCVMCAwEAAaNQME4wHQYDVR0OBBYEFAimq4+ptXMsmbcOlEhB
O3T1STODMB8GA1UdIwQYMBaAFAimq4+ptXMsmbcOlEhBO3T1STODMAwGA1UdEwQF
MAMBAf8wDQYJKoZIhvcNAQEFBQADggIBAFQQBK0YFuMP8SWIvaHYtkPKBxafMTBk
nuixW4+bup9oN9hL1PLJ9dSLoKl3ClnNcbJhHiN4xxFwPtzOxjRU9Xwsy18Sg3OM
zp5nYQD0wm2IRQQu+miO/Rs1N6V19ukYkI2EROF6pu1tE8oKpw2NE4qYWkQqp0zT
E+KzvsYSuUNiGdi2OI+xXtuVAEIfM+WgA2EeqJXDvQ2OhfGDf1tEi1lFVTWbnPLr
+FLWEvM/+SU6IovyrP2CCcBJRNBVobxEMHN+JCygHAsGslkD21RsPWablS33dskC
bGjH9YTMcY4bJDLsYS6cWRz52Z0BT1ytNii7LQgbfA0IYEkE3tEH308ALqynejSx
t2Z7zcyC+Y1RBF96UI+5Vgqgq5ZdlEjwh0S1Q64hLGSSJ+pfZ2aIoPUV49fKIi2I
2Fzh5zViM9ilQmA1c2y/WNM5OprQSAiCsO4wsM7w+6WV1928odKnwlBXGMNbwqjM
o9wr6U0TlKLEYbLkq/JyWzni1TuSL5zCtksknCCeAhFMKgQ5iXm0puFa8TpuOeSI
K1yBk77LvvMRTdAAvuTVXl91MY0L2kG9JPsIkLTiwWhbxUPRrDmRED/yf9y/3/s4
XFT0ABcMQ6fDVIuDWSONJn3NXU5glXXKUObuRVUi8Si9plinW2Ix1wS02+Mu43AY
uRmPmPi+zQUa
-----END CERTIFICATE-----
Certificate:
    Data:
        Version: 3 (0x2)
        Serial Number: 6 (0x6)
        Signature Algorithm: sha1WithRSAEncryption
        Issuer: C=CY, ST=Larnaca, L=Larnaca, O=Phoenix ltd, OU=PhoenixCA, CN=ca.phoenix.info/emailAddress=admin@phoenix.info
        Validity
            Not Before: Dec 12 16:59:54 2012 GMT
            Not After : Dec 12 16:59:54 2015 GMT
        Subject: C=CY, ST=Larnaca, O=Phoenix ltd, OU=Server03, CN=localhost
        Subject Public Key Info:
            Public Key Algorithm: rsaEncryption
                Public-Key: (4096 bit)
                Modulus:
                    00:d6:e1:d1:4c:3f:89:de:38:2f:9c:c3:fa:a9:f2:
                    7b:25:da:9e:cf:ea:1e:0d:61:f4:0f:a8:47:f8:01:
                    2f:bc:64:d4:27:57:17:b6:3f:54:0b:69:ee:c0:d0:
                    f4:67:60:1c:82:98:43:a1:a0:14:1c:ed:51:13:1f:
                    03:c8:46:e5:ac:35:41:b8:51:03:a4:fd:8a:03:68:
                    8f:0b:01:98:fc:44:da:9c:19:67:0f:66:1e:7d:a5:
                    6b:0f:32:fd:18:6e:5c:2c:f6:af:93:d2:ab:9f:cd:
                    d2:f6:0e:1c:a5:12:d9:14:59:5b:76:03:12:5b:13:
                    d3:88:94:15:9b:fa:b4:86:47:40:95:dc:c3:d8:52:
                    d0:9a:7e:23:8c:2b:00:9c:fe:1b:c5:80:6a:27:3b:
                    de:8f:85:96:36:48:2e:04:8a:a2:47:55:1b:6a:34:
                    c3:74:2a:27:7d:15:15:e7:9a:13:c2:f4:f9:a1:d7:
                    e0:16:47:e9:bb:f5:d4:0a:56:06:70:30:7c:b7:5f:
                    6a:d8:ab:2b:ea:c7:9c:70:23:b8:10:63:bb:01:2b:
                    5f:43:62:c3:e7:45:a6:88:d0:14:aa:a3:43:1e:c6:
                    a0:3f:b9:55:3f:24:dc:af:2e:b9:d8:1f:34:4d:ac:
                    96:0c:d9:8b:e8:2b:f8:4f:e8:aa:c5:76:3e:c2:1a:
                    ff:0a:e3:85:a5:72:3e:34:af:e2:2d:fe:80:91:1c:
                    63:a0:c5:08:4b:f7:3a:9a:c4:58:71:45:32:d5:cd:
                    4e:23:08:56:9d:de:5c:1c:68:8a:69:af:b5:53:20:
                    06:02:0d:b8:b5:f5:5e:eb:dc:51:d2:59:d1:a0:57:
                    0f:db:91:9d:8d:51:02:16:e9:1a:d4:74:48:80:c9:
                    ad:ad:e2:95:66:d0:73:53:68:a9:11:a0:c5:d7:7c:
                    eb:6c:4f:0a:88:00:2c:a3:3a:8c:82:e7:6a:b3:81:
                    5e:db:43:a1:81:ae:00:f3:b9:93:dc:36:b6:7d:17:
                    b0:32:b9:f1:c4:f5:c6:9b:a4:54:df:1c:30:ac:4d:
                    67:2d:5b:f2:b1:b1:41:bd:0e:f9:7d:43:02:cf:74:
                    d3:6f:a9:8e:6b:11:0a:93:57:a6:b1:f6:99:00:4e:
                    2a:4d:c7:09:a3:6a:76:a6:eb:3e:2b:a5:39:28:44:
                    52:c8:39:1b:50:0c:3c:9c:c0:c6:1f:0c:59:ed:8c:
                    d2:67:03:a2:72:13:d6:a6:9e:73:38:c9:05:5a:88:
                    ec:03:91:21:fd:0b:04:a0:63:c5:38:4e:16:5a:0f:
                    35:82:5b:40:48:07:6d:ec:c3:c4:cf:ce:75:35:ec:
                    7b:7c:f8:25:ca:47:f4:d0:7b:22:c3:da:28:01:47:
                    ed:e1:fb
                Exponent: 65537 (0x10001)
        X509v3 extensions:
            X509v3 Subject Key Identifier: 
                0C:74:38:6F:B2:68:44:2F:FE:CD:6C:54:51:EE:0A:86:D3:A2:DD:D0
            X509v3 Authority Key Identifier: 
                keyid:08:A6:AB:8F:A9:B5:73:2C:99:B7:0E:94:48:41:3B:74:F5:49:33:83

            X509v3 Basic Constraints: 
                CA:TRUE
    Signature Algorithm: sha1WithRSAEncryption
        b4:0c:70:48:2d:ac:e2:43:e3:bd:bb:7e:ce:e6:21:b9:37:e8:
        90:b8:ab:73:49:bc:03:db:1b:d1:36:ee:d6:ad:fb:93:a2:e2:
        87:6d:04:92:0c:06:f1:ac:e9:1b:a2:1c:56:f1:d8:73:20:f2:
        90:8b:19:51:5c:38:dc:58:76:96:a6:a3:78:53:0a:c4:15:28:
        d0:80:76:ad:4c:44:47:12:cf:a7:62:4e:90:ae:9e:14:a7:0d:
        31:d4:7d:56:ed:d5:36:44:b9:6a:03:4b:35:7b:1a:03:76:80:
        a4:b4:6c:97:a6:a2:ff:d2:7f:35:f8:7e:a6:4a:a7:b1:5e:d6:
        b9:3f:13:47:00:09:48:20:3c:0a:7a:90:d0:1e:9e:a6:4f:44:
        9f:0e:5f:64:26:47:cf:e9:b1:2f:dd:f3:37:93:ad:c1:8c:42:
        07:e4:3b:33:54:63:81:1d:5f:56:d6:bc:06:f7:8a:d9:40:f1:
        47:74:37:1b:5c:66:eb:e1:7c:40:0c:a5:a9:41:91:a1:cc:e7:
        bb:5c:35:21:4e:40:f9:df:ff:6d:62:9f:74:aa:40:46:dd:f6:
        a1:44:54:dd:fe:b2:3b:99:a7:6b:7c:f9:e6:19:7a:46:85:f1:
        bf:e4:45:de:73:ef:50:02:37:11:96:c5:74:3a:ba:b8:ce:cb:
        0d:43:45:b8:76:77:c0:32:d3:d0:6b:68:99:91:06:0d:73:42:
        a9:99:81:ee:59:f1:c6:19:78:71:51:d4:28:df:20:be:f3:76:
        25:b4:ba:24:a3:3b:2a:23:ae:8b:9c:e9:19:9b:49:a2:6a:1a:
        8c:01:66:fa:03:73:f7:e9:9f:73:c0:f8:b0:78:86:dd:4f:7f:
        8b:56:a5:11:16:03:82:6a:61:b5:20:21:c8:a0:c7:9d:d9:27:
        69:9a:88:2d:78:9b:ef:bd:f4:3a:0b:ab:7b:3d:dc:aa:5a:9b:
        fb:52:eb:58:61:b4:87:06:72:b3:a0:b5:2c:03:79:65:eb:66:
        99:7e:69:cc:1c:d2:c0:e2:26:b7:47:3a:a8:d8:8e:38:00:6f:
        17:a1:7e:9c:4a:0b:dd:dd:a6:9d:20:87:af:ca:5f:e7:8e:83:
        7c:be:da:c6:aa:98:67:bf:c4:1d:39:ef:06:2a:ba:26:13:c9:
        5a:7c:16:49:e8:62:35:be:7b:8f:a5:4f:97:e8:ae:b9:52:05:
        fe:e5:8f:e9:d3:d4:aa:4b:5a:8e:86:dd:1f:7a:f0:74:a8:ec:
        ca:f6:e9:a2:fc:68:6c:ab:32:b7:31:ad:a6:d6:5f:9f:47:25:
        a1:99:20:39:f7:1e:4b:c1:6a:79:45:54:e0:6f:7d:60:fd:70:
        4b:25:2d:15:8e:fa:91:31
-----BEGIN CERTIFICATE-----
MIIFwDCCA6igAwIBAgIBBjANBgkqhkiG9w0BAQUFADCBmDELMAkGA1UEBhMCQ1kx
EDAOBgNVBAgMB0xhcm5hY2ExEDAOBgNVBAcMB0xhcm5hY2ExFDASBgNVBAoMC1Bo
b2VuaXggbHRkMRIwEAYDVQQLDAlQaG9lbml4Q0ExGDAWBgNVBAMMD2NhLnBob2Vu
aXguaW5mbzEhMB8GCSqGSIb3DQEJARYSYWRtaW5AcGhvZW5peC5pbmZvMB4XDTEy
MTIxMjE2NTk1NFoXDTE1MTIxMjE2NTk1NFowXDELMAkGA1UEBhMCQ1kxEDAOBgNV
BAgMB0xhcm5hY2ExFDASBgNVBAoMC1Bob2VuaXggbHRkMREwDwYDVQQLDAhTZXJ2
ZXIwMzESMBAGA1UEAwwJbG9jYWxob3N0MIICIjANBgkqhkiG9w0BAQEFAAOCAg8A
MIICCgKCAgEA1uHRTD+J3jgvnMP6qfJ7Jdqez+oeDWH0D6hH+AEvvGTUJ1cXtj9U
C2nuwND0Z2AcgphDoaAUHO1REx8DyEblrDVBuFEDpP2KA2iPCwGY/ETanBlnD2Ye
faVrDzL9GG5cLPavk9Krn83S9g4cpRLZFFlbdgMSWxPTiJQVm/q0hkdAldzD2FLQ
mn4jjCsAnP4bxYBqJzvej4WWNkguBIqiR1UbajTDdConfRUV55oTwvT5odfgFkfp
u/XUClYGcDB8t19q2Ksr6seccCO4EGO7AStfQ2LD50WmiNAUqqNDHsagP7lVPyTc
ry652B80TayWDNmL6Cv4T+iqxXY+whr/CuOFpXI+NK/iLf6AkRxjoMUIS/c6msRY
cUUy1c1OIwhWnd5cHGiKaa+1UyAGAg24tfVe69xR0lnRoFcP25GdjVECFuka1HRI
gMmtreKVZtBzU2ipEaDF13zrbE8KiAAsozqMgudqs4Fe20Ohga4A87mT3Da2fRew
MrnxxPXGm6RU3xwwrE1nLVvysbFBvQ75fUMCz3TTb6mOaxEKk1emsfaZAE4qTccJ
o2p2pus+K6U5KERSyDkbUAw8nMDGHwxZ7YzSZwOichPWpp5zOMkFWojsA5Eh/QsE
oGPFOE4WWg81gltASAdt7MPEz851Nex7fPglykf00Hsiw9ooAUft4fsCAwEAAaNQ
ME4wHQYDVR0OBBYEFAx0OG+yaEQv/s1sVFHuCobTot3QMB8GA1UdIwQYMBaAFAim
q4+ptXMsmbcOlEhBO3T1STODMAwGA1UdEwQFMAMBAf8wDQYJKoZIhvcNAQEFBQAD
ggIBALQMcEgtrOJD4727fs7mIbk36JC4q3NJvAPbG9E27tat+5Oi4odtBJIMBvGs
6RuiHFbx2HMg8pCLGVFcONxYdpamo3hTCsQVKNCAdq1MREcSz6diTpCunhSnDTHU
fVbt1TZEuWoDSzV7GgN2gKS0bJemov/SfzX4fqZKp7Fe1rk/E0cACUggPAp6kNAe
nqZPRJ8OX2QmR8/psS/d8zeTrcGMQgfkOzNUY4EdX1bWvAb3itlA8Ud0NxtcZuvh
fEAMpalBkaHM57tcNSFOQPnf/21in3SqQEbd9qFEVN3+sjuZp2t8+eYZekaF8b/k
Rd5z71ACNxGWxXQ6urjOyw1DRbh2d8Ay09BraJmRBg1zQqmZge5Z8cYZeHFR1Cjf
IL7zdiW0uiSjOyojrouc6RmbSaJqGowBZvoDc/fpn3PA+LB4ht1Pf4tWpREWA4Jq
YbUgIcigx53ZJ2maiC14m++99DoLq3s93Kpam/tS61hhtIcGcrOgtSwDeWXrZpl+
acwc0sDiJrdHOqjYjjgAbxehfpxKC93dpp0gh6/KX+eOg3y+2saqmGe/xB057wYq
uiYTyVp8FknoYjW+e4+lT5forrlSBf7lj+nT1KpLWo6G3R968HSo7Mr26aL8aGyr
MrcxrabWX59HJaGZIDn3HkvBanlFVOBvfWD9cEslLRWO+pEx
-----END CERTIFICATE-----
-----BEGIN CERTIFICATE-----
MIIE8zCCAtugAwIBAgICICYwDQYJKoZIhvcNAQEFBQAwfzELMAkGA1UEBhMCR0kx
EjAQBgNVBAgMCUdpYnJhbHRhcjEPMA0GA1UECgwGUGhvbmVYMRMwEQYDVQQLDApL
ZXkgU2VydmVyMRQwEgYDVQQDDAtwaG9uZS14Lm5ldDEgMB4GCSqGSIb3DQEJARYR
YWRtaW5AcGhvbmUteC5uZXQwHhcNMTUwOTAzMTUwMTUxWhcNMTcwOTAyMTUwMTUx
WjCBpzEpMCcGCSqGSIb3DQEJARYadGVzdC1pbnRlcm5hbDNAcGhvbmUteC5uZXQx
IzAhBgNVBAMMGnRlc3QtaW50ZXJuYWwzQHBob25lLXgubmV0MQ8wDQYDVQQLDAZQ
aG9uZVgxDzANBgNVBAoMBlBob25lWDESMBAGA1UEBwwJR2licmFsdGFyMRIwEAYD
VQQIDAlHaWJyYWx0YXIxCzAJBgNVBAYTAkdJMIIBIjANBgkqhkiG9w0BAQEFAAOC
AQ8AMIIBCgKCAQEAlTqbU4lVGNrv8W5Q3sqlVqdkaaZNVS1c0b/n4WgxbqJn3DYF
4cC/jQHEdLw1aCs5+qvYvDpl+RfgfrRRFHYIV1a93kFV83p1Qq8KCjkL0eM+VV8T
PC8KJN3a5rJYFQuvrRcDefKWSVIGa/RKjZK31L6SRhlroJbAWhzhmpVi59f+G3lc
ZO3dDtTJYZ+bHz7IV/r1/WTmmNlsLFieT9RLRz/9t5Cg/N2WsI1dsr18opNpRgeq
dPexhjXExy8Z763njZK7TgnCB/s1RHFzQNNJ1EEyjBquz0R/QQptahzutkIkvbQL
S+RZfdTn0hWBz236C6hxswWeynwOuHREtYfPAwIDAQABo1AwTjAMBgNVHRMBAf8E
AjAAMB0GA1UdDgQWBBSk9tD6OXjlhc47p11PT/qWSPYpsDAfBgNVHSMEGDAWgBR1
rstdHOk4GGe36+dbZTlnL7dJuTANBgkqhkiG9w0BAQUFAAOCAgEAtETMKMV2oEjq
DO6TryrVTSwvdqeQ/qzsMZIgqvnyYAou3nsaOkN10jTdwW+GiG82o8YtZQo/04yh
n+qWFAjXk65ISAwbRgLMMZ8mpit3/jYWc/+4XMS51GZ0ixCjTk02Mn0yENgt0YwH
kfxWkZGsAtgwlRk+6uW+jJ4XwGHmxOuDtmkqVL7PusHCDOa8netA6TUfDHluXI3p
QFU5qtSJTWKWA8CrBvL//CdExo4IuWL/0pGMsae16Fds+txOdnJmQda3SFCMDCP8
UBWZRJMTvfFRA9LT0I1lxlCUwnJyTuQ146IVkUnQtxDttbZ4VgEnst1njGvlVGEB
SkXtyTN6+drbtpGrl7OHsJVXPiIfU13RZsRyFi3HVy0axkzeJcBBYrq8Vb6ctBH1
j8SoUUoiaLkqudvZIPF0sosyEgaZqNYAig6DrJgkOKbeCtF2O0LEo3pQVjCLQv/Q
QzpT/zMqulsXl7FopB5o4+Au0tP+Ln0RexcRlIVPkyzwqttO0gL3v0tg3/zSzlfj
DLc6cPGd4b88nHj1X3hIy9EDIHi4Disv98eN9pDTq8HNlid9/lAs/FcbAGUljhg7
dzfhgGHxNpEpmKcmPLkFwQs+qUj3DYZU9E/3DqGPGKttI6cJ+U8NVyoYBMxyINMb
DK/wAJjWqp0/GQGAsoOY+7XWvK+ynYU=
-----END CERTIFICATE-----